; Function Attrs: mustprogress nounwind uwtable
define internal void @_ZN6hermes2vm17sampling_profiler12_GLOBAL__N_112SamplerPosix22profilingSignalHandlerEi(i32 %signo) #0 align 2 {
entry:
  br label %while.cond

while.cond:                                       ; preds = %while.cond, %entry
  %0 = load atomic i64, ptr @_ZN6hermes2vm17sampling_profiler12_GLOBAL__N_112SamplerPosix15profilerForSig_E.0 acquire, align 8
  %tobool.not = icmp eq i64 %0, 0
  br i1 %tobool.not, label %while.cond, label %while.end, !llvm.loop !11

while.end:                                        ; preds = %while.cond
  %atomic-temp.i.0.i = inttoptr i64 %0 to ptr
  %call1 = tail call ptr @__errno_location() #17
  %1 = load i32, ptr %call1, align 4
  %2 = load atomic i64, ptr @_ZN6hermes2vm17sampling_profiler12_GLOBAL__N_112SamplerPosix9instance_E.0 seq_cst, align 8
  %3 = inttoptr i64 %2 to ptr
  tail call void @_ZN6hermes2vm17sampling_profiler7Sampler16walkRuntimeStackEPNS0_16SamplingProfilerE(ptr noundef nonnull align 8 dereferenceable(208) %3, ptr noundef nonnull %atomic-temp.i.0.i) #14
  store atomic i64 0, ptr @_ZN6hermes2vm17sampling_profiler12_GLOBAL__N_112SamplerPosix15profilerForSig_E.0 seq_cst, align 8
  %samplingDoneSem_ = getelementptr inbounds i8, ptr %3, i64 216
  %call3 = tail call noundef zeroext i1 @_ZN6hermes9Semaphore9notifyOneEv(ptr noundef nonnull align 8 dereferenceable(32) %samplingDoneSem_) #14
  store i32 %1, ptr %call1, align 4
  br i1 %call3, label %if.end, label %if.then

if.then:                                          ; preds = %while.end
  tail call void @abort() #19
  unreachable

if.end:                                           ; preds = %while.end
  ret void
}